target datalayout = "e-m:e-p270:32:32-p271:32:32-p272:64:64-i64:64-i128:128-f80:128-n8:16:32:64-S128"
target triple = "x86_64-pc-linux-gnu"

%struct.FLAC__StreamMetadata_CueSheet_Track = type { i64, i8, [13 x i8], i8, i8, ptr }

; Function Attrs: nounwind sspstrong uwtable
define hidden void @FLAC__metadata_object_cuesheet_track_delete_data(ptr noundef %0) #0 {
  %2 = alloca ptr, align 8
  store ptr %0, ptr %2, align 8, !tbaa !27
  %3 = load ptr, ptr %2, align 8, !tbaa !27
  %4 = getelementptr inbounds nuw %struct.FLAC__StreamMetadata_CueSheet_Track, ptr %3, i32 0, i32 5
  %5 = load ptr, ptr %4, align 8, !tbaa !33
  %6 = icmp ne ptr %5, null
  br i1 %6, label %7, label %11

7:                                                ; preds = %1
  %8 = load ptr, ptr %2, align 8, !tbaa !27
  %9 = getelementptr inbounds nuw %struct.FLAC__StreamMetadata_CueSheet_Track, ptr %8, i32 0, i32 5
  %10 = load ptr, ptr %9, align 8, !tbaa !33
  call void @free(ptr noundef %10) #12
  br label %11

11:                                               ; preds = %7, %1
  ret void
}