; Function Attrs: mustprogress nounwind sspstrong willreturn uwtable
define hidden void @FLAC__metadata_object_cuesheet_track_delete_data(ptr noundef readonly captures(none) %0) local_unnamed_addr #18 {
  %2 = getelementptr inbounds nuw i8, ptr %0, i64 24
  %3 = load ptr, ptr %2, align 8, !tbaa !21
  %.not = icmp eq ptr %3, null
  br i1 %.not, label %5, label %4

4:                                                ; preds = %1
  tail call void @free(ptr noundef nonnull %3) #31
  br label %5

5:                                                ; preds = %4, %1
  ret void
}